; Function Attrs: nounwind uwtable
define internal noundef i32 @_blendop_masks_modes_none_clicked(ptr noundef %0, ptr noundef readonly captures(none) %1, ptr noundef %2) #0 {
  %4 = load ptr, ptr getelementptr inbounds nuw (i8, ptr @darktable, i64 104), align 8, !tbaa !33
  %5 = getelementptr inbounds nuw i8, ptr %4, i64 96
  %6 = load i32, ptr %5, align 8, !tbaa !66
  %.not = icmp eq i32 %6, 0
  br i1 %.not, label %7, label %20

7:                                                ; preds = %3
  %8 = getelementptr inbounds nuw i8, ptr %2, i64 776
  %9 = load ptr, ptr %8, align 8, !tbaa !6
  %10 = getelementptr inbounds nuw i8, ptr %1, i64 52
  %11 = load i32, ptr %10, align 4, !tbaa !184
  %12 = icmp eq i32 %11, 1
  br i1 %12, label %13, label %20

13:                                               ; preds = %7
  %14 = getelementptr inbounds nuw i8, ptr %9, i64 112
  %15 = load ptr, ptr %14, align 8, !tbaa !215
  %.not10 = icmp eq ptr %15, %0
  br i1 %.not10, label %20, label %16

16:                                               ; preds = %13
  %17 = tail call i64 @gtk_toggle_button_get_type() #19
  %18 = tail call ptr @g_type_check_instance_cast(ptr noundef %15, i64 noundef %17) #18
  tail call void @gtk_toggle_button_set_active(ptr noundef %18, i32 noundef 0) #18
  tail call fastcc void @_blendop_masks_mode_callback(i32 noundef 0, ptr noundef nonnull %9)
  store ptr %0, ptr %14, align 8, !tbaa !215
  tail call void @dt_iop_add_remove_mask_indicator(ptr noundef nonnull %2, i32 noundef 0) #18
  %19 = load ptr, ptr getelementptr inbounds nuw (i8, ptr @darktable, i64 88), align 8, !tbaa !189
  tail call void @dt_control_hinter_message(ptr noundef %19, ptr noundef nonnull @.str.107) #18
  br label %20

20:                                               ; preds = %7, %13, %16, %3
  ret i32 1
}